target datalayout = "e-m:e-p270:32:32-p271:32:32-p272:64:64-i64:64-i128:128-f80:128-n8:16:32:64-S128"
target triple = "x86_64-pc-linux-gnu"

%struct.Scl_Pair_t_ = type { i32, i32 }
%struct.Scl_Tree_t_ = type { ptr, ptr, i64, i32, i32, i32, ptr, ptr, i64, ptr }
%struct.Vec_Str_t_ = type { i32, i32, ptr }

; Function Attrs: nounwind uwtable
define internal void @Vec_StrGrow(ptr noundef %0, i32 noundef %1) #0 {
  %3 = alloca ptr, align 8
  %4 = alloca i32, align 4
  store ptr %0, ptr %3, align 8
  store i32 %1, ptr %4, align 4
  %5 = load ptr, ptr %3, align 8
  %6 = getelementptr inbounds %struct.Vec_Str_t_, ptr %5, i32 0, i32 0
  %7 = load i32, ptr %6, align 8
  %8 = load i32, ptr %4, align 4
  %9 = icmp sge i32 %7, %8
  br i1 %9, label %10, label %11

10:                                               ; preds = %2
  br label %36

11:                                               ; preds = %2
  %12 = load ptr, ptr %3, align 8
  %13 = getelementptr inbounds %struct.Vec_Str_t_, ptr %12, i32 0, i32 2
  %14 = load ptr, ptr %13, align 8
  %15 = icmp ne ptr %14, null
  br i1 %15, label %16, label %24

16:                                               ; preds = %11
  %17 = load ptr, ptr %3, align 8
  %18 = getelementptr inbounds %struct.Vec_Str_t_, ptr %17, i32 0, i32 2
  %19 = load ptr, ptr %18, align 8
  %20 = load i32, ptr %4, align 4
  %21 = sext i32 %20 to i64
  %22 = mul i64 1, %21
  %23 = call ptr @realloc(ptr noundef %19, i64 noundef %22) #14
  br label %29

24:                                               ; preds = %11
  %25 = load i32, ptr %4, align 4
  %26 = sext i32 %25 to i64
  %27 = mul i64 1, %26
  %28 = call noalias ptr @malloc(i64 noundef %27) #12
  br label %29

29:                                               ; preds = %24, %16
  %30 = phi ptr [ %23, %16 ], [ %28, %24 ]
  %31 = load ptr, ptr %3, align 8
  %32 = getelementptr inbounds %struct.Vec_Str_t_, ptr %31, i32 0, i32 2
  store ptr %30, ptr %32, align 8
  %33 = load i32, ptr %4, align 4
  %34 = load ptr, ptr %3, align 8
  %35 = getelementptr inbounds %struct.Vec_Str_t_, ptr %34, i32 0, i32 0
  store i32 %33, ptr %35, align 8
  br label %36

36:                                               ; preds = %29, %10
  ret void
}

; Function Attrs: nounwind uwtable
define internal ptr @Vec_StrArray(ptr noundef %0) #0 {
  %2 = alloca ptr, align 8
  store ptr %0, ptr %2, align 8
  %3 = load ptr, ptr %2, align 8
  %4 = getelementptr inbounds %struct.Vec_Str_t_, ptr %3, i32 0, i32 2
  %5 = load ptr, ptr %4, align 8
  ret ptr %5
}

; Function Attrs: nounwind uwtable
define internal void @Vec_StrFill(ptr noundef %0, i32 noundef %1, i8 noundef signext %2) #0 {
  %4 = alloca ptr, align 8
  %5 = alloca i32, align 4
  %6 = alloca i8, align 1
  %7 = alloca i32, align 4
  store ptr %0, ptr %4, align 8
  store i32 %1, ptr %5, align 4
  store i8 %2, ptr %6, align 1
  %8 = load ptr, ptr %4, align 8
  %9 = load i32, ptr %5, align 4
  call void @Vec_StrGrow(ptr noundef %8, i32 noundef %9)
  %10 = load i32, ptr %5, align 4
  %11 = load ptr, ptr %4, align 8
  %12 = getelementptr inbounds %struct.Vec_Str_t_, ptr %11, i32 0, i32 1
  store i32 %10, ptr %12, align 4
  store i32 0, ptr %7, align 4
  br label %13

13:                                               ; preds = %27, %3
  %14 = load i32, ptr %7, align 4
  %15 = load ptr, ptr %4, align 8
  %16 = getelementptr inbounds %struct.Vec_Str_t_, ptr %15, i32 0, i32 1
  %17 = load i32, ptr %16, align 4
  %18 = icmp slt i32 %14, %17
  br i1 %18, label %19, label %30

19:                                               ; preds = %13
  %20 = load i8, ptr %6, align 1
  %21 = load ptr, ptr %4, align 8
  %22 = getelementptr inbounds %struct.Vec_Str_t_, ptr %21, i32 0, i32 2
  %23 = load ptr, ptr %22, align 8
  %24 = load i32, ptr %7, align 4
  %25 = sext i32 %24 to i64
  %26 = getelementptr inbounds i8, ptr %23, i64 %25
  store i8 %20, ptr %26, align 1
  br label %27

27:                                               ; preds = %19
  %28 = load i32, ptr %7, align 4
  %29 = add nsw i32 %28, 1
  store i32 %29, ptr %7, align 4
  br label %13, !llvm.loop !13

30:                                               ; preds = %13
  ret void
}

; Function Attrs: nounwind uwtable
define internal i32 @Vec_StrSize(ptr noundef %0) #0 {
  %2 = alloca ptr, align 8
  store ptr %0, ptr %2, align 8
  %3 = load ptr, ptr %2, align 8
  %4 = getelementptr inbounds %struct.Vec_Str_t_, ptr %3, i32 0, i32 1
  %5 = load i32, ptr %4, align 4
  ret i32 %5
}

; Function Attrs: nounwind uwtable
define ptr @Scl_LibertyReadString(ptr noundef %0, i64 %1) #0 {
  %3 = alloca ptr, align 8
  %4 = alloca %struct.Scl_Pair_t_, align 4
  %5 = alloca ptr, align 8
  %6 = alloca ptr, align 8
  store i64 %1, ptr %4, align 4
  store ptr %0, ptr %5, align 8
  %7 = getelementptr inbounds %struct.Scl_Pair_t_, ptr %4, i32 0, i32 1
  %8 = load i32, ptr %7, align 4
  %9 = getelementptr inbounds %struct.Scl_Pair_t_, ptr %4, i32 0, i32 0
  %10 = load i32, ptr %9, align 4
  %11 = sub nsw i32 %8, %10
  %12 = add nsw i32 %11, 2
  %13 = load ptr, ptr %5, align 8
  %14 = getelementptr inbounds %struct.Scl_Tree_t_, ptr %13, i32 0, i32 9
  %15 = load ptr, ptr %14, align 8
  %16 = call i32 @Vec_StrSize(ptr noundef %15)
  %17 = icmp sgt i32 %12, %16
  br i1 %17, label %18, label %28

18:                                               ; preds = %2
  %19 = load ptr, ptr %5, align 8
  %20 = getelementptr inbounds %struct.Scl_Tree_t_, ptr %19, i32 0, i32 9
  %21 = load ptr, ptr %20, align 8
  %22 = getelementptr inbounds %struct.Scl_Pair_t_, ptr %4, i32 0, i32 1
  %23 = load i32, ptr %22, align 4
  %24 = getelementptr inbounds %struct.Scl_Pair_t_, ptr %4, i32 0, i32 0
  %25 = load i32, ptr %24, align 4
  %26 = sub nsw i32 %23, %25
  %27 = add nsw i32 %26, 100
  call void @Vec_StrFill(ptr noundef %21, i32 noundef %27, i8 noundef signext 0)
  br label %28

28:                                               ; preds = %18, %2
  %29 = load ptr, ptr %5, align 8
  %30 = getelementptr inbounds %struct.Scl_Tree_t_, ptr %29, i32 0, i32 9
  %31 = load ptr, ptr %30, align 8
  %32 = call ptr @Vec_StrArray(ptr noundef %31)
  store ptr %32, ptr %6, align 8
  %33 = load ptr, ptr %6, align 8
  %34 = load ptr, ptr %5, align 8
  %35 = getelementptr inbounds %struct.Scl_Tree_t_, ptr %34, i32 0, i32 1
  %36 = load ptr, ptr %35, align 8
  %37 = getelementptr inbounds %struct.Scl_Pair_t_, ptr %4, i32 0, i32 0
  %38 = load i32, ptr %37, align 4
  %39 = sext i32 %38 to i64
  %40 = getelementptr inbounds i8, ptr %36, i64 %39
  %41 = getelementptr inbounds %struct.Scl_Pair_t_, ptr %4, i32 0, i32 1
  %42 = load i32, ptr %41, align 4
  %43 = getelementptr inbounds %struct.Scl_Pair_t_, ptr %4, i32 0, i32 0
  %44 = load i32, ptr %43, align 4
  %45 = sub nsw i32 %42, %44
  %46 = sext i32 %45 to i64
  %47 = call ptr @strncpy(ptr noundef %33, ptr noundef %40, i64 noundef %46) #10
  %48 = getelementptr inbounds %struct.Scl_Pair_t_, ptr %4, i32 0, i32 0
  %49 = load i32, ptr %48, align 4
  %50 = getelementptr inbounds %struct.Scl_Pair_t_, ptr %4, i32 0, i32 1
  %51 = load i32, ptr %50, align 4
  %52 = icmp slt i32 %49, %51
  br i1 %52, label %53, label %71

53:                                               ; preds = %28
  %54 = load ptr, ptr %6, align 8
  %55 = getelementptr inbounds i8, ptr %54, i64 0
  %56 = load i8, ptr %55, align 1
  %57 = sext i8 %56 to i32
  %58 = icmp eq i32 %57, 34
  br i1 %58, label %59, label %71

59:                                               ; preds = %53
  %60 = load ptr, ptr %6, align 8
  %61 = getelementptr inbounds %struct.Scl_Pair_t_, ptr %4, i32 0, i32 1
  %62 = load i32, ptr %61, align 4
  %63 = getelementptr inbounds %struct.Scl_Pair_t_, ptr %4, i32 0, i32 0
  %64 = load i32, ptr %63, align 4
  %65 = sub nsw i32 %62, %64
  %66 = sub nsw i32 %65, 1
  %67 = sext i32 %66 to i64
  %68 = getelementptr inbounds i8, ptr %60, i64 %67
  store i8 0, ptr %68, align 1
  %69 = load ptr, ptr %6, align 8
  %70 = getelementptr inbounds i8, ptr %69, i64 1
  store ptr %70, ptr %3, align 8
  br label %81

71:                                               ; preds = %53, %28
  %72 = load ptr, ptr %6, align 8
  %73 = getelementptr inbounds %struct.Scl_Pair_t_, ptr %4, i32 0, i32 1
  %74 = load i32, ptr %73, align 4
  %75 = getelementptr inbounds %struct.Scl_Pair_t_, ptr %4, i32 0, i32 0
  %76 = load i32, ptr %75, align 4
  %77 = sub nsw i32 %74, %76
  %78 = sext i32 %77 to i64
  %79 = getelementptr inbounds i8, ptr %72, i64 %78
  store i8 0, ptr %79, align 1
  %80 = load ptr, ptr %6, align 8
  store ptr %80, ptr %3, align 8
  br label %81

81:                                               ; preds = %71, %59
  %82 = load ptr, ptr %3, align 8
  ret ptr %82
}