; Function Attrs: nounwind uwtable
define ptr @Scl_LibertyReadString(ptr noundef readonly captures(none) %0, i64 %1) local_unnamed_addr #4 {
  %.sroa.0.0.extract.trunc = trunc i64 %1 to i32
  %.sroa.8.0.extract.shift = lshr i64 %1, 32
  %.sroa.8.0.extract.trunc = trunc nuw i64 %.sroa.8.0.extract.shift to i32
  %3 = sub nsw i32 %.sroa.8.0.extract.trunc, %.sroa.0.0.extract.trunc
  %4 = add nsw i32 %3, 2
  %5 = getelementptr inbounds nuw i8, ptr %0, i64 64
  %6 = load ptr, ptr %5, align 8
  %7 = getelementptr i8, ptr %6, i64 4
  %.val = load i32, ptr %7, align 4
  %8 = icmp sgt i32 %4, %.val
  br i1 %8, label %9, label %Vec_StrFill.exit

9:                                                ; preds = %2
  %10 = add nsw i32 %3, 100
  %11 = load i32, ptr %6, align 8
  %.not.i.i = icmp slt i32 %11, %10
  br i1 %.not.i.i, label %12, label %Vec_StrGrow.exit.i

12:                                               ; preds = %9
  %13 = getelementptr inbounds nuw i8, ptr %6, i64 8
  %14 = load ptr, ptr %13, align 8
  %.not9.i.i = icmp eq ptr %14, null
  %15 = sext i32 %10 to i64
  br i1 %.not9.i.i, label %18, label %16

16:                                               ; preds = %12
  %17 = tail call ptr @realloc(ptr noundef nonnull %14, i64 noundef %15) #27
  br label %20

18:                                               ; preds = %12
  %19 = tail call noalias ptr @malloc(i64 noundef %15) #28
  br label %20

20:                                               ; preds = %18, %16
  %21 = phi ptr [ %17, %16 ], [ %19, %18 ]
  store ptr %21, ptr %13, align 8
  store i32 %10, ptr %6, align 8
  br label %Vec_StrGrow.exit.i

Vec_StrGrow.exit.i:                               ; preds = %20, %9
  store i32 %10, ptr %7, align 4
  %22 = icmp sgt i32 %3, -100
  br i1 %22, label %.lr.ph.i, label %Vec_StrFill.exit

.lr.ph.i:                                         ; preds = %Vec_StrGrow.exit.i
  %23 = getelementptr inbounds nuw i8, ptr %6, i64 8
  br label %24

24:                                               ; preds = %24, %.lr.ph.i
  %indvars.iv.i = phi i64 [ 0, %.lr.ph.i ], [ %indvars.iv.next.i, %24 ]
  %25 = load ptr, ptr %23, align 8
  %26 = getelementptr inbounds nuw i8, ptr %25, i64 %indvars.iv.i
  store i8 0, ptr %26, align 1
  %indvars.iv.next.i = add nuw nsw i64 %indvars.iv.i, 1
  %27 = load i32, ptr %7, align 4
  %28 = sext i32 %27 to i64
  %29 = icmp slt i64 %indvars.iv.next.i, %28
  br i1 %29, label %24, label %Vec_StrFill.exit, !llvm.loop !12

Vec_StrFill.exit:                                 ; preds = %24, %Vec_StrGrow.exit.i, %2
  %30 = load ptr, ptr %5, align 8
  %31 = getelementptr i8, ptr %30, i64 8
  %.val22 = load ptr, ptr %31, align 8
  %32 = getelementptr inbounds nuw i8, ptr %0, i64 8
  %33 = load ptr, ptr %32, align 8
  %sext = shl i64 %1, 32
  %34 = ashr exact i64 %sext, 32
  %35 = getelementptr inbounds i8, ptr %33, i64 %34
  %36 = sext i32 %3 to i64
  %37 = tail call ptr @strncpy(ptr noundef %.val22, ptr noundef %35, i64 noundef %36) #29
  %38 = icmp slt i32 %.sroa.0.0.extract.trunc, %.sroa.8.0.extract.trunc
  br i1 %38, label %39, label %46

39:                                               ; preds = %Vec_StrFill.exit
  %40 = load i8, ptr %.val22, align 1
  %41 = icmp eq i8 %40, 34
  br i1 %41, label %42, label %46

42:                                               ; preds = %39
  %43 = getelementptr i8, ptr %.val22, i64 %36
  %44 = getelementptr i8, ptr %43, i64 -1
  store i8 0, ptr %44, align 1
  %45 = getelementptr inbounds nuw i8, ptr %.val22, i64 1
  br label %48

46:                                               ; preds = %39, %Vec_StrFill.exit
  %47 = getelementptr inbounds i8, ptr %.val22, i64 %36
  store i8 0, ptr %47, align 1
  br label %48

48:                                               ; preds = %46, %42
  %.0 = phi ptr [ %45, %42 ], [ %.val22, %46 ]
  ret ptr %.0
}